# SymbolsHelper-Confirmed: 4:22.12.0 armel armhf hppa hurd-i386 i386 m68k mips64el mipsel powerpc ppc64 ppc64el riscv64 s390x x32
libKF5KDEGames.so.7 libkf5kdegames7 #MINVER#
* Build-Depends-Package: libkf5kdegames-dev
 _ZN10KGameClock11qt_metacallEN11QMetaObject4CallEiPPv@Base 4:14.12.50
 _ZN10KGameClock11qt_metacastEPKc@Base 4:14.12.50
 _ZN10KGameClock11timeChangedERK7QString@Base 4:14.12.50
 _ZN10KGameClock12timeoutClockEv@Base 4:14.12.50
 _ZN10KGameClock16staticMetaObjectE@Base 4:14.12.50
 _ZN10KGameClock5pauseEv@Base 4:14.12.50
 _ZN10KGameClock6resumeEv@Base 4:14.12.50
 _ZN10KGameClock7restartEv@Base 4:14.12.50
 _ZN10KGameClock7setTimeERK7QString@Base 4:14.12.50
 _ZN10KGameClock7setTimeEj@Base 4:14.12.50
 _ZN10KGameClock8showTimeEv@Base 4:14.12.50
 _ZN10KGameClockC1EP7QObjectNS_9ClockTypeE@Base 4:14.12.50
 _ZN10KGameClockC2EP7QObjectNS_9ClockTypeE@Base 4:14.12.50
 _ZN10KGameClockD0Ev@Base 4:14.12.50
 _ZN10KGameClockD1Ev@Base 4:14.12.50
 _ZN10KGameClockD2Ev@Base 4:14.12.50
 _ZN10KHighscore10writeEntryEiRK7QStringRK8QVariant@Base 4:14.12.50
 _ZN10KHighscore10writeEntryEiRK7QStringS2_@Base 4:14.12.50
 _ZN10KHighscore10writeEntryEiRK7QStringi@Base 4:14.12.50
 _ZN10KHighscore11qt_metacallEN11QMetaObject4CallEiPPv@Base 4:14.12.50
 _ZN10KHighscore11qt_metacastEPKc@Base 4:14.12.50
 _ZN10KHighscore14lockForWritingEP7QWidget@Base 4:14.12.50
 _ZN10KHighscore14writeAndUnlockEv@Base 4:14.12.50
 _ZN10KHighscore16staticMetaObjectE@Base 4:14.12.50
 _ZN10KHighscore17readCurrentConfigEv@Base 4:14.12.50
 _ZN10KHighscore17setHighscoreGroupERK7QString@Base 4:14.12.50
 _ZN10KHighscore4initEPKc@Base 4:14.12.50
 _ZN10KHighscore4initEb@Base 4:14.12.50
 _ZN10KHighscore9writeListERK7QStringRK11QStringList@Base 4:14.12.50
 _ZN10KHighscoreC1EbP7QObject@Base 4:14.12.50
 _ZN10KHighscoreC2EbP7QObject@Base 4:14.12.50
 _ZN10KHighscoreD0Ev@Base 4:14.12.50
 _ZN10KHighscoreD1Ev@Base 4:14.12.50
 _ZN10KHighscoreD2Ev@Base 4:14.12.50
 _ZN12KScoreDialog10setCommentERK7QString@Base 4:14.12.50
 _ZN12KScoreDialog11qt_metacallEN11QMetaObject4CallEiPPv@Base 4:14.12.50
 _ZN12KScoreDialog11qt_metacastEPKc@Base 4:14.12.50
 _ZN12KScoreDialog11slotGotNameEv@Base 4:14.12.50
 _ZN12KScoreDialog13keyPressEventEP9QKeyEvent@Base 4:14.12.50
 _ZN12KScoreDialog13slotGotReturnEv@Base 4:14.12.50
 _ZN12KScoreDialog14setConfigGroupERK5QPairI10QByteArray7QStringE@Base 4:14.12.50
 _ZN12KScoreDialog14setConfigGroupERK7QString@Base 4:14.12.50
 _ZN12KScoreDialog15slotForgetScoreEv@Base 4:14.12.50
 _ZN12KScoreDialog16staticMetaObjectE@Base 4:14.12.50
 _ZN12KScoreDialog18initFromDifficultyEPK12KgDifficultyb@Base 4:14.12.50
 _ZN12KScoreDialog21setConfigGroupWeightsERK4QMapIi10QByteArrayE@Base 4:14.12.50
 _ZN12KScoreDialog21setHiddenConfigGroupsERK5QListI10QByteArrayE@Base 4:14.12.50
 _ZN12KScoreDialog27addLocalizedConfigGroupNameERK5QPairI10QByteArray7QStringE@Base 4:14.12.50
 _ZN12KScoreDialog28addLocalizedConfigGroupNamesERK4QMapI10QByteArray7QStringE@Base 4:14.12.50
 _ZN12KScoreDialog4execEv@Base 4:14.12.50
 _ZN12KScoreDialog4showEv@Base 4:14.12.50
 _ZN12KScoreDialog8addFieldEiRK7QStringS2_@Base 4:14.12.50
 _ZN12KScoreDialog8addScoreERK4QMapIi7QStringERK6QFlagsINS_12AddScoreFlagEE@Base 4:14.12.50
 _ZN12KScoreDialog8addScoreEiRK6QFlagsINS_12AddScoreFlagEE@Base 4:14.12.50
 _ZN12KScoreDialog9hideFieldEi@Base 4:14.12.50
 _ZN12KScoreDialog9highScoreEv@Base 4:14.12.50
 _ZN12KScoreDialogC1EiP7QWidget@Base 4:14.12.50
 _ZN12KScoreDialogC2EiP7QWidget@Base 4:14.12.50
 _ZN12KScoreDialogD0Ev@Base 4:14.12.50
 _ZN12KScoreDialogD1Ev@Base 4:14.12.50
 _ZN12KScoreDialogD2Ev@Base 4:14.12.50
 _ZN12KgAudioScene11listenerPosEv@Base 4:14.12.50
 _ZN12KgAudioScene12capabilitiesEv@Base 4:14.12.50
 _ZN12KgAudioScene14setListenerPosERK7QPointF@Base 4:14.12.50
 _ZN12KgAudioScene6volumeEv@Base 4:14.12.50
 _ZN12KgAudioScene8hasErrorEv@Base 4:14.12.50
 _ZN12KgAudioScene9setVolumeEd@Base 4:14.12.50
 _ZN12KgDifficulty11qt_metacallEN11QMetaObject4CallEiPPv@Base 4:14.12.50
 _ZN12KgDifficulty11qt_metacastEPKc@Base 4:14.12.50
 _ZN12KgDifficulty11setEditableEb@Base 4:14.12.50
 _ZN12KgDifficulty14setGameRunningEb@Base 4:14.12.50
 _ZN12KgDifficulty15editableChangedEb@Base 4:14.12.50
 _ZN12KgDifficulty16addStandardLevelEN17KgDifficultyLevel13StandardLevelEb@Base 4:14.12.50
 _ZN12KgDifficulty16staticMetaObjectE@Base 4:14.12.50
 _ZN12KgDifficulty18gameRunningChangedEb@Base 4:14.12.50
 _ZN12KgDifficulty19currentLevelChangedEPK17KgDifficultyLevel@Base 4:14.12.50
 _ZN12KgDifficulty20selectedLevelChangedEPK17KgDifficultyLevel@Base 4:14.12.50
 _ZN12KgDifficulty21addStandardLevelRangeEN17KgDifficultyLevel13StandardLevelES1_@Base 4:14.12.50
 _ZN12KgDifficulty21addStandardLevelRangeEN17KgDifficultyLevel13StandardLevelES1_S1_@Base 4:14.12.50
 _ZN12KgDifficulty6selectEPK17KgDifficultyLevel@Base 4:14.12.50
 _ZN12KgDifficulty8addLevelEP17KgDifficultyLevel@Base 4:14.12.50
 _ZN12KgDifficultyC1EP7QObject@Base 4:14.12.50
 _ZN12KgDifficultyC2EP7QObject@Base 4:14.12.50
 _ZN12KgDifficultyD0Ev@Base 4:14.12.50
 _ZN12KgDifficultyD1Ev@Base 4:14.12.50
 _ZN12KgDifficultyD2Ev@Base 4:14.12.50
 _ZN13KGameRenderer11qt_metacallEN11QMetaObject4CallEiPPv@Base 4:14.12.50
 _ZN13KGameRenderer11qt_metacastEPKc@Base 4:14.12.50
 _ZN13KGameRenderer12themeChangedEPK7KgTheme@Base 4:14.12.50
 _ZN13KGameRenderer14setFrameSuffixERK7QString@Base 4:14.12.50
 _ZN13KGameRenderer16readOnlyPropertyEv@Base 4:14.12.50
 _ZN13KGameRenderer16staticMetaObjectE@Base 4:14.12.50
 _ZN13KGameRenderer17setFrameBaseIndexEi@Base 4:14.12.50
 _ZN13KGameRenderer18setStrategyEnabledENS_8StrategyEb@Base 4:14.12.50
 _ZN13KGameRenderer21setDefaultPrimaryViewEP13QGraphicsView@Base 4:14.12.50
 _ZN13KGameRendererC1EP15KgThemeProviderj@Base 4:14.12.50
 _ZN13KGameRendererC1EP7KgThemej@Base 4:14.12.50
 _ZN13KGameRendererC2EP15KgThemeProviderj@Base 4:14.12.50
 _ZN13KGameRendererC2EP7KgThemej@Base 4:14.12.50
 _ZN13KGameRendererD0Ev@Base 4:14.12.50
 _ZN13KGameRendererD1Ev@Base 4:14.12.50
 _ZN13KGameRendererD2Ev@Base 4:14.12.50
 _ZN14KGamePopupItem11linkHoveredERK7QString@Base 4:14.12.50
 _ZN14KGamePopupItem11qt_metacallEN11QMetaObject4CallEiPPv@Base 4:14.12.50
 _ZN14KGamePopupItem11qt_metacastEPKc@Base 4:14.12.50
 _ZN14KGamePopupItem11showMessageERK7QStringNS_8PositionENS_11ReplaceModeE@Base 4:14.12.50
 _ZN14KGamePopupItem12setSharpnessENS_9SharpnessE@Base 4:14.12.50
 _ZN14KGamePopupItem12setTextColorERK6QColor@Base 4:14.12.50
 _ZN14KGamePopupItem13linkActivatedERK7QString@Base 4:14.12.50
 _ZN14KGamePopupItem13onLinkHoveredERK7QString@Base 4:14.12.50
 _ZN14KGamePopupItem13setupTimelineEv@Base 4:14.12.50
 _ZN14KGamePopupItem14animationFrameEi@Base 4:14.12.50
 _ZN14KGamePopupItem14setMessageIconERK7QPixmap@Base 4:14.12.50
 _ZN14KGamePopupItem15hoverEnterEventEP24QGraphicsSceneHoverEvent@Base 4:14.12.50
 _ZN14KGamePopupItem15hoverLeaveEventEP24QGraphicsSceneHoverEvent@Base 4:14.12.50
 _ZN14KGamePopupItem15mousePressEventEP24QGraphicsSceneMouseEvent@Base 4:14.12.50
 _ZN14KGamePopupItem16staticMetaObjectE@Base 4:14.12.50
 _ZN14KGamePopupItem17mouseReleaseEventEP24QGraphicsSceneMouseEvent@Base 4:14.12.50
 _ZN14KGamePopupItem17onTextItemClickedEv@Base 4:14.12.50
 _ZN14KGamePopupItem17playHideAnimationEv@Base 4:14.12.50
 _ZN14KGamePopupItem17setMessageOpacityEd@Base 4:14.12.50
 _ZN14KGamePopupItem17setMessageTimeoutEi@Base 4:14.12.50
 _ZN14KGamePopupItem18setBackgroundBrushERK6QBrush@Base 4:14.12.50
 _ZN14KGamePopupItem19setHideOnMouseClickEb@Base 4:14.12.50
 _ZN14KGamePopupItem5paintEP8QPainterPK24QStyleOptionGraphicsItemP7QWidget@Base 4:14.12.50
 _ZN14KGamePopupItem6hiddenEv@Base 4:14.12.50
 _ZN14KGamePopupItem6hideMeEv@Base 4:14.12.50
 _ZN14KGamePopupItem9forceHideENS_8HideTypeE@Base 4:14.12.50
 _ZN14KGamePopupItemC1EP13QGraphicsItem@Base 4:14.12.50
 _ZN14KGamePopupItemC2EP13QGraphicsItem@Base 4:14.12.50
 _ZN14KGamePopupItemD0Ev@Base 4:14.12.50
 _ZN14KGamePopupItemD1Ev@Base 4:14.12.50
 _ZN14KGamePopupItemD2Ev@Base 4:14.12.50
 _ZN15KgDifficultyGUI4initEP13KXmlGuiWindowP12KgDifficulty@Base 4:14.12.50
 _ZN15KgThemeProvider11nameChangedERK7QString@Base 4:14.12.50
 _ZN15KgThemeProvider11qt_metacallEN11QMetaObject4CallEiPPv@Base 4:14.12.50
 _ZN15KgThemeProvider11qt_metacastEPKc@Base 4:14.12.50
 _ZN15KgThemeProvider14discoverThemesERK10QByteArrayRK7QStringS5_PK11QMetaObject@Base 4:14.12.50
 _ZN15KgThemeProvider14discoverThemesERK7QStringS2_PK11QMetaObject@Base 4:22.12.0
 _ZN15KgThemeProvider15generatePreviewEPK7KgThemeRK5QSize@Base 4:14.12.50
 _ZN15KgThemeProvider15setCurrentThemeEPK7KgTheme@Base 4:14.12.50
 _ZN15KgThemeProvider15setDefaultThemeEPK7KgTheme@Base 4:14.12.50
 _ZN15KgThemeProvider16rediscoverThemesEv@Base 4:14.12.50
 _ZN15KgThemeProvider16staticMetaObjectE@Base 4:14.12.50
 _ZN15KgThemeProvider19currentThemeChangedEPK7KgTheme@Base 4:14.12.50
 _ZN15KgThemeProvider20setDeclarativeEngineERK7QStringP10QQmlEngine@Base 4:14.12.50
 _ZN15KgThemeProvider23currentThemeNameChangedERK7QString@Base 4:14.12.50
 _ZN15KgThemeProvider8addThemeEP7KgTheme@Base 4:14.12.50
 _ZN15KgThemeProviderC1ERK10QByteArrayP7QObject@Base 4:14.12.50
 _ZN15KgThemeProviderC2ERK10QByteArrayP7QObject@Base 4:14.12.50
 _ZN15KgThemeProviderD0Ev@Base 4:14.12.50
 _ZN15KgThemeProviderD1Ev@Base 4:14.12.50
 _ZN15KgThemeProviderD2Ev@Base 4:14.12.50
 _ZN15KgThemeSelector11qt_metacallEN11QMetaObject4CallEiPPv@Base 4:14.12.50
 _ZN15KgThemeSelector11qt_metacastEPKc@Base 4:14.12.50
 _ZN15KgThemeSelector12showAsDialogERK7QString@Base 4:14.12.50
 _ZN15KgThemeSelector16staticMetaObjectE@Base 4:14.12.50
 _ZN15KgThemeSelector25setNewStuffConfigFileNameERK7QString@Base 4:22.12.0
 _ZN15KgThemeSelectorC1EP15KgThemeProvider6QFlagsINS_6OptionEEP7QWidget@Base 4:14.12.50
 _ZN15KgThemeSelectorC2EP15KgThemeProvider6QFlagsINS_6OptionEEP7QWidget@Base 4:14.12.50
 _ZN15KgThemeSelectorD0Ev@Base 4:14.12.50
 _ZN15KgThemeSelectorD1Ev@Base 4:14.12.50
 _ZN15KgThemeSelectorD2Ev@Base 4:14.12.50
 _ZN17KGameRenderedItem13receivePixmapERK7QPixmap@Base 4:14.12.50
 _ZN17KGameRenderedItemC1EP13KGameRendererRK7QStringP13QGraphicsItem@Base 4:14.12.50
 _ZN17KGameRenderedItemC2EP13KGameRendererRK7QStringP13QGraphicsItem@Base 4:14.12.50
 _ZN17KGameRenderedItemD0Ev@Base 4:14.12.50
 _ZN17KGameRenderedItemD1Ev@Base 4:14.12.50
 _ZN17KGameRenderedItemD2Ev@Base 4:14.12.50
 _ZN17KgDeclarativeView11qt_metacallEN11QMetaObject4CallEiPPv@Base 4:14.12.50
 _ZN17KgDeclarativeView11qt_metacastEPKc@Base 4:14.12.50
 _ZN17KgDeclarativeView16staticMetaObjectE@Base 4:14.12.50
 _ZN17KgDeclarativeViewC1EP7QWidget@Base 4:14.12.50
 _ZN17KgDeclarativeViewC2EP7QWidget@Base 4:14.12.50
 _ZN17KgDeclarativeViewD0Ev@Base 4:21.04.0
 _ZN17KgDeclarativeViewD1Ev@Base 4:21.04.0
 _ZN17KgDeclarativeViewD2Ev@Base 4:21.04.0
 _ZN17KgDifficultyLevel11qt_metacallEN11QMetaObject4CallEiPPv@Base 4:14.12.50
 _ZN17KgDifficultyLevel11qt_metacastEPKc@Base 4:14.12.50
 _ZN17KgDifficultyLevel16staticMetaObjectE@Base 4:14.12.50
 _ZN17KgDifficultyLevelC1ENS_13StandardLevelEb@Base 4:14.12.50
 _ZN17KgDifficultyLevelC1EiRK10QByteArrayRK7QStringb@Base 4:14.12.50
 _ZN17KgDifficultyLevelC2ENS_13StandardLevelEb@Base 4:14.12.50
 _ZN17KgDifficultyLevelC2EiRK10QByteArrayRK7QStringb@Base 4:14.12.50
 _ZN17KgDifficultyLevelD0Ev@Base 4:14.12.50
 _ZN17KgDifficultyLevelD1Ev@Base 4:14.12.50
 _ZN17KgDifficultyLevelD2Ev@Base 4:14.12.50
 _ZN19KGameRendererClient12setSpriteKeyERK7QString@Base 4:14.12.50
 _ZN19KGameRendererClient13setRenderSizeERK5QSize@Base 4:14.12.50
 _ZN19KGameRendererClient15setCustomColorsERK5QHashI6QColorS1_E@Base 4:14.12.50
 _ZN19KGameRendererClient8setFrameEi@Base 4:14.12.50
 _ZN19KGameRendererClientC1EP13KGameRendererRK7QString@Base 4:14.12.50
 _ZN19KGameRendererClientC2EP13KGameRendererRK7QString@Base 4:14.12.50
 _ZN19KGameRendererClientD0Ev@Base 4:14.12.50
 _ZN19KGameRendererClientD1Ev@Base 4:14.12.50
 _ZN19KGameRendererClientD2Ev@Base 4:14.12.50
 _ZN19KStandardGameAction10highscoresEPK7QObjectPKcPS0_@Base 4:14.12.50
 _ZN19KStandardGameAction10loadRecentEPK7QObjectPKcPS0_@Base 4:14.12.50
 _ZN19KStandardGameAction10statisticsEPK7QObjectPKcPS0_@Base 4:14.12.50
 _ZN19KStandardGameAction14chooseGameTypeEPK7QObjectPKcPS0_@Base 4:14.12.50
 _ZN19KStandardGameAction15clearStatisticsEPK7QObjectPKcPS0_@Base 4:14.12.50
 _ZN19KStandardGameAction17_k_createInternalENS_18StandardGameActionEP7QObject@Base 4:21.04.0
 _ZN19KStandardGameAction19configureHighscoresEPK7QObjectPKcPS0_@Base 4:14.12.50
 _ZN19KStandardGameAction3endEPK7QObjectPKcPS0_@Base 4:14.12.50
 _ZN19KStandardGameAction4demoEPK7QObjectPKcPS0_@Base 4:14.12.50
 _ZN19KStandardGameAction4hintEPK7QObjectPKcPS0_@Base 4:14.12.50
 _ZN19KStandardGameAction4loadEPK7QObjectPKcPS0_@Base 4:14.12.50
 _ZN19KStandardGameAction4nameENS_18StandardGameActionE@Base 4:14.12.50
 _ZN19KStandardGameAction4quitEPK7QObjectPKcPS0_@Base 4:14.12.50
 _ZN19KStandardGameAction4redoEPK7QObjectPKcPS0_@Base 4:14.12.50
 _ZN19KStandardGameAction4rollEPK7QObjectPKcPS0_@Base 4:14.12.50
 _ZN19KStandardGameAction4saveEPK7QObjectPKcPS0_@Base 4:14.12.50
 _ZN19KStandardGameAction4undoEPK7QObjectPKcPS0_@Base 4:14.12.50
 _ZN19KStandardGameAction5pauseEPK7QObjectPKcPS0_@Base 4:14.12.50
 _ZN19KStandardGameAction5printEPK7QObjectPKcPS0_@Base 4:14.12.50
 _ZN19KStandardGameAction5solveEPK7QObjectPKcPS0_@Base 4:14.12.50
 _ZN19KStandardGameAction6createENS_18StandardGameActionEPK7QObjectPKcPS1_@Base 4:14.12.50
 _ZN19KStandardGameAction6repeatEPK7QObjectPKcPS0_@Base 4:14.12.50
 _ZN19KStandardGameAction6saveAsEPK7QObjectPKcPS0_@Base 4:14.12.50
 _ZN19KStandardGameAction7endTurnEPK7QObjectPKcPS0_@Base 4:14.12.50
 _ZN19KStandardGameAction7gameNewEPK7QObjectPKcPS0_@Base 4:14.12.50
 _ZN19KStandardGameAction7restartEPK7QObjectPKcPS0_@Base 4:14.12.50
 _ZN19KStandardGameAction9carddecksEPK7QObjectPKcPS0_@Base 4:14.12.50
 _ZN23KGameRenderedObjectItem11qt_metacallEN11QMetaObject4CallEiPPv@Base 4:14.12.50
 _ZN23KGameRenderedObjectItem11qt_metacastEPKc@Base 4:14.12.50
 _ZN23KGameRenderedObjectItem12setFixedSizeERK6QSizeF@Base 4:14.12.50
 _ZN23KGameRenderedObjectItem13receivePixmapERK7QPixmap@Base 4:14.12.50
 _ZN23KGameRenderedObjectItem14setPrimaryViewEP13QGraphicsView@Base 4:14.12.50
 _ZN23KGameRenderedObjectItem16staticMetaObjectE@Base 4:14.12.50
 _ZN23KGameRenderedObjectItem5paintEP8QPainterPK24QStyleOptionGraphicsItemP7QWidget@Base 4:14.12.50
 _ZN23KGameRenderedObjectItem9setOffsetERK7QPointF@Base 4:14.12.50
 _ZN23KGameRenderedObjectItem9setOffsetEdd@Base 4:14.12.50
 _ZN23KGameRenderedObjectItemC1EP13KGameRendererRK7QStringP13QGraphicsItem@Base 4:14.12.50
 _ZN23KGameRenderedObjectItemC2EP13KGameRendererRK7QStringP13QGraphicsItem@Base 4:14.12.50
 _ZN23KGameRenderedObjectItemD0Ev@Base 4:14.12.50
 _ZN23KGameRenderedObjectItemD1Ev@Base 4:14.12.50
 _ZN23KGameRenderedObjectItemD2Ev@Base 4:14.12.50
 _ZN2Kg10difficultyEv@Base 4:14.12.50
 _ZN2Kg15difficultyLevelEv@Base 4:14.12.50
 _ZN7KgSound10posChangedERK7QPointF@Base 4:14.12.50
 _ZN7KgSound11qt_metacallEN11QMetaObject4CallEiPPv@Base 4:14.12.50
 _ZN7KgSound11qt_metacastEPKc@Base 4:14.12.50
 _ZN7KgSound13volumeChangedEd@Base 4:14.12.50
 _ZN7KgSound15setPlaybackTypeENS_12PlaybackTypeE@Base 4:14.12.50
 _ZN7KgSound16staticMetaObjectE@Base 4:14.12.50
 _ZN7KgSound19playbackTypeChangedENS_12PlaybackTypeE@Base 4:14.12.50
 _ZN7KgSound4stopEv@Base 4:14.12.50
 _ZN7KgSound5startERK7QPointF@Base 4:14.12.50
 _ZN7KgSound5startEv@Base 4:14.12.50
 _ZN7KgSound6setPosERK7QPointF@Base 4:14.12.50
 _ZN7KgSound9setVolumeEd@Base 4:14.12.50
 _ZN7KgSoundC1ERK7QStringP7QObject@Base 4:14.12.50
 _ZN7KgSoundC2ERK7QStringP7QObject@Base 4:14.12.50
 _ZN7KgSoundD0Ev@Base 4:14.12.50
 _ZN7KgSoundD1Ev@Base 4:14.12.50
 _ZN7KgSoundD2Ev@Base 4:14.12.50
 _ZN7KgTheme11qt_metacallEN11QMetaObject4CallEiPPv@Base 4:14.12.50
 _ZN7KgTheme11qt_metacastEPKc@Base 4:14.12.50
 _ZN7KgTheme13setCustomDataERK4QMapI7QStringS1_E@Base 4:14.12.50
 _ZN7KgTheme14setAuthorEmailERK7QString@Base 4:14.12.50
 _ZN7KgTheme14setDescriptionERK7QString@Base 4:14.12.50
 _ZN7KgTheme14setPreviewPathERK7QString@Base 4:14.12.50
 _ZN7KgTheme15setGraphicsPathERK7QString@Base 4:14.12.50
 _ZN7KgTheme16readOnlyPropertyEv@Base 4:14.12.50
 _ZN7KgTheme16staticMetaObjectE@Base 4:14.12.50
 _ZN7KgTheme19readFromDesktopFileERK7QString@Base 4:14.12.50
 _ZN7KgTheme7setNameERK7QString@Base 4:14.12.50
 _ZN7KgTheme9setAuthorERK7QString@Base 4:14.12.50
 _ZN7KgThemeC1ERK10QByteArrayP7QObject@Base 4:14.12.50
 _ZN7KgThemeC2ERK10QByteArrayP7QObject@Base 4:14.12.50
 _ZN7KgThemeD0Ev@Base 4:14.12.50
 _ZN7KgThemeD1Ev@Base 4:14.12.50
 _ZN7KgThemeD2Ev@Base 4:14.12.50
 _ZNK10KGameClock10metaObjectEv@Base 4:14.12.50
 _ZNK10KGameClock10timeStringEv@Base 4:14.12.50
 _ZNK10KGameClock7secondsEv@Base 4:14.12.50
 _ZNK10KHighscore10metaObjectEv@Base 4:14.12.50
 _ZNK10KHighscore12readNumEntryEiRK7QStringi@Base 4:14.12.50
 _ZNK10KHighscore14highscoreGroupEv@Base 4:14.12.50
 _ZNK10KHighscore17readPropertyEntryEiRK7QStringRK8QVariant@Base 4:14.12.50
 _ZNK10KHighscore5groupEv@Base 4:14.12.50
 _ZNK10KHighscore6configEv@Base 4:14.12.50
 _ZNK10KHighscore8hasEntryEiRK7QString@Base 4:14.12.50
 _ZNK10KHighscore8hasTableEv@Base 4:14.12.50
 _ZNK10KHighscore8isLockedEv@Base 4:14.12.50
 _ZNK10KHighscore8readListERK7QStringi@Base 4:14.12.50
 _ZNK10KHighscore9groupListEv@Base 4:14.12.50
 _ZNK10KHighscore9readEntryEiRK7QStringS2_@Base 4:14.12.50
 (optional=templinst|arch=!x32)_ZNK12KConfigGroup9readEntryI10QByteArrayEET_PKcRKS2_@Base 4:22.12.0
 _ZNK12KScoreDialog10metaObjectEv@Base 4:14.12.50
 _ZNK12KgDifficulty10isEditableEv@Base 4:14.12.50
 _ZNK12KgDifficulty10metaObjectEv@Base 4:14.12.50
 _ZNK12KgDifficulty12currentLevelEv@Base 4:14.12.50
 _ZNK12KgDifficulty13isGameRunningEv@Base 4:14.12.50
 _ZNK12KgDifficulty6levelsEv@Base 4:14.12.50
 _ZNK12QPaintDevice7devTypeEv@Base 4:14.12.50
 _ZNK13KGameRenderer10frameCountERK7QString@Base 4:14.12.50
 _ZNK13KGameRenderer10metaObjectEv@Base 4:14.12.50
 _ZNK13KGameRenderer10strategiesEv@Base 4:14.12.50
 _ZNK13KGameRenderer11frameSuffixEv@Base 4:14.12.50
 _ZNK13KGameRenderer12spriteExistsERK7QString@Base 4:14.12.50
 _ZNK13KGameRenderer12spritePixmapERK7QStringRK5QSizeiRK5QHashI6QColorS7_E@Base 4:14.12.50
 _ZNK13KGameRenderer13themeProviderEv@Base 4:14.12.50
 _ZNK13KGameRenderer14boundsOnSpriteERK7QStringi@Base 4:14.12.50
 _ZNK13KGameRenderer14frameBaseIndexEv@Base 4:14.12.50
 _ZNK13KGameRenderer18defaultPrimaryViewEv@Base 4:14.12.50
 _ZNK13KGameRenderer5themeEv@Base 4:14.12.50
 _ZNK14KGamePopupItem10metaObjectEv@Base 4:14.12.50
 _ZNK14KGamePopupItem12boundingRectEv@Base 4:14.12.50
 _ZNK14KGamePopupItem14messageOpacityEv@Base 4:14.12.50
 _ZNK14KGamePopupItem14messageTimeoutEv@Base 4:14.12.50
 _ZNK14KGamePopupItem17hidesOnMouseClickEv@Base 4:14.12.50
 _ZNK14KGamePopupItem9sharpnessEv@Base 4:14.12.50
 _ZNK15KgThemeProvider10metaObjectEv@Base 4:14.12.50
 _ZNK15KgThemeProvider12currentThemeEv@Base 4:14.12.50
 _ZNK15KgThemeProvider12defaultThemeEv@Base 4:14.12.50
 _ZNK15KgThemeProvider16currentThemeNameEv@Base 4:14.12.50
 _ZNK15KgThemeProvider4nameEv@Base 4:14.12.50
 _ZNK15KgThemeProvider6themesEv@Base 4:14.12.50
 _ZNK15KgThemeSelector10metaObjectEv@Base 4:14.12.50
 _ZNK17KgDeclarativeView10metaObjectEv@Base 4:14.12.50
 _ZNK17KgDifficultyLevel10metaObjectEv@Base 4:14.12.50
 _ZNK17KgDifficultyLevel13standardLevelEv@Base 4:14.12.50
 _ZNK17KgDifficultyLevel3keyEv@Base 4:14.12.50
 _ZNK17KgDifficultyLevel5titleEv@Base 4:14.12.50
 _ZNK17KgDifficultyLevel8hardnessEv@Base 4:14.12.50
 _ZNK17KgDifficultyLevel9isDefaultEv@Base 4:14.12.50
 _ZNK19KGameRendererClient10frameCountEv@Base 4:14.12.50
 _ZNK19KGameRendererClient10renderSizeEv@Base 4:14.12.50
 _ZNK19KGameRendererClient12customColorsEv@Base 4:14.12.50
 _ZNK19KGameRendererClient5frameEv@Base 4:14.12.50
 _ZNK19KGameRendererClient8rendererEv@Base 4:14.12.50
 _ZNK19KGameRendererClient9spriteKeyEv@Base 4:14.12.50
 _ZNK23KGameRenderedObjectItem10metaObjectEv@Base 4:14.12.50
 _ZNK23KGameRenderedObjectItem10opaqueAreaEv@Base 4:14.12.50
 _ZNK23KGameRenderedObjectItem11primaryViewEv@Base 4:14.12.50
 _ZNK23KGameRenderedObjectItem12boundingRectEv@Base 4:14.12.50
 _ZNK23KGameRenderedObjectItem12isObscuredByEPK13QGraphicsItem@Base 4:14.12.50
 _ZNK23KGameRenderedObjectItem5shapeEv@Base 4:14.12.50
 _ZNK23KGameRenderedObjectItem6offsetEv@Base 4:14.12.50
 _ZNK23KGameRenderedObjectItem8containsERK7QPointF@Base 4:14.12.50
 _ZNK23KGameRenderedObjectItem9fixedSizeEv@Base 4:14.12.50
 _ZNK7KgSound10metaObjectEv@Base 4:14.12.50
 _ZNK7KgSound12playbackTypeEv@Base 4:14.12.50
 _ZNK7KgSound3posEv@Base 4:14.12.50
 _ZNK7KgSound6volumeEv@Base 4:14.12.50
 _ZNK7KgSound7isValidEv@Base 4:14.12.50
 _ZNK7KgSound8hasErrorEv@Base 4:14.12.50
 _ZNK7KgTheme10customDataERK7QStringS2_@Base 4:14.12.50
 _ZNK7KgTheme10customDataEv@Base 4:14.12.50
 _ZNK7KgTheme10identifierEv@Base 4:14.12.50
 _ZNK7KgTheme10metaObjectEv@Base 4:14.12.50
 _ZNK7KgTheme11authorEmailEv@Base 4:14.12.50
 _ZNK7KgTheme11descriptionEv@Base 4:14.12.50
 _ZNK7KgTheme11previewPathEv@Base 4:14.12.50
 _ZNK7KgTheme12graphicsPathEv@Base 4:14.12.50
 _ZNK7KgTheme4nameEv@Base 4:14.12.50
 _ZNK7KgTheme6authorEv@Base 4:14.12.50
 _ZTI10KGameClock@Base 4:14.12.50
 _ZTI10KHighscore@Base 4:14.12.50
 _ZTI12KScoreDialog@Base 4:14.12.50
 _ZTI12KgDifficulty@Base 4:14.12.50
 _ZTI13KGameRenderer@Base 4:14.12.50
 _ZTI14KGamePopupItem@Base 4:14.12.50
 _ZTI15KgThemeProvider@Base 4:14.12.50
 _ZTI15KgThemeSelector@Base 4:14.12.50
 _ZTI16KSharedDataCache@Base 4:14.12.50
 _ZTI17KGameRenderedItem@Base 4:14.12.50
 _ZTI17KgDeclarativeView@Base 4:14.12.50
 _ZTI17KgDifficultyLevel@Base 4:14.12.50
 _ZTI19KGameRendererClient@Base 4:14.12.50
 _ZTI23KGameRenderedObjectItem@Base 4:14.12.50
 _ZTI7KgSound@Base 4:14.12.50
 _ZTI7KgTheme@Base 4:14.12.50
 _ZTS10KGameClock@Base 4:14.12.50
 _ZTS10KHighscore@Base 4:14.12.50
 _ZTS12KScoreDialog@Base 4:14.12.50
 _ZTS12KgDifficulty@Base 4:14.12.50
 _ZTS13KGameRenderer@Base 4:14.12.50
 _ZTS14KGamePopupItem@Base 4:14.12.50
 _ZTS15KgThemeProvider@Base 4:14.12.50
 _ZTS15KgThemeSelector@Base 4:14.12.50
 _ZTS16KSharedDataCache@Base 4:14.12.50
 _ZTS17KGameRenderedItem@Base 4:14.12.50
 _ZTS17KgDeclarativeView@Base 4:14.12.50
 _ZTS17KgDifficultyLevel@Base 4:14.12.50
 _ZTS19KGameRendererClient@Base 4:14.12.50
 _ZTS23KGameRenderedObjectItem@Base 4:14.12.50
 _ZTS7KgSound@Base 4:14.12.50
 _ZTS7KgTheme@Base 4:14.12.50
 _ZTV10KGameClock@Base 4:14.12.50
 _ZTV10KHighscore@Base 4:14.12.50
 _ZTV12KScoreDialog@Base 4:14.12.50
 _ZTV12KgDifficulty@Base 4:14.12.50
 _ZTV13KGameRenderer@Base 4:14.12.50
 _ZTV14KGamePopupItem@Base 4:14.12.50
 _ZTV15KgThemeProvider@Base 4:14.12.50
 _ZTV15KgThemeSelector@Base 4:14.12.50
 _ZTV17KGameRenderedItem@Base 4:14.12.50
 _ZTV17KgDeclarativeView@Base 4:14.12.50
 _ZTV17KgDifficultyLevel@Base 4:14.12.50
 _ZTV19KGameRendererClient@Base 4:14.12.50
 _ZTV23KGameRenderedObjectItem@Base 4:14.12.50
 _ZTV7KgSound@Base 4:14.12.50
 _ZTV7KgTheme@Base 4:14.12.50
 (c++)"non-virtual thunk to KGamePopupItem::boundingRect() const@Base" 4:14.12.50
 (c++)"non-virtual thunk to KGamePopupItem::hoverEnterEvent(QGraphicsSceneHoverEvent*)@Base" 4:14.12.50
 (c++)"non-virtual thunk to KGamePopupItem::hoverLeaveEvent(QGraphicsSceneHoverEvent*)@Base" 4:14.12.50
 (c++)"non-virtual thunk to KGamePopupItem::mousePressEvent(QGraphicsSceneMouseEvent*)@Base" 4:14.12.50
 (c++)"non-virtual thunk to KGamePopupItem::mouseReleaseEvent(QGraphicsSceneMouseEvent*)@Base" 4:14.12.50
 (c++)"non-virtual thunk to KGamePopupItem::paint(QPainter*, QStyleOptionGraphicsItem const*, QWidget*)@Base" 4:14.12.50
 (c++)"non-virtual thunk to KGamePopupItem::~KGamePopupItem()@Base" 4:14.12.50
 (c++)"non-virtual thunk to KGameRenderedItem::receivePixmap(QPixmap const&)@Base" 4:14.12.50
 (c++)"non-virtual thunk to KGameRenderedItem::~KGameRenderedItem()@Base" 4:14.12.50
 (c++)"non-virtual thunk to KGameRenderedObjectItem::boundingRect() const@Base" 4:14.12.50
 (c++)"non-virtual thunk to KGameRenderedObjectItem::contains(QPointF const&) const@Base" 4:14.12.50
 (c++)"non-virtual thunk to KGameRenderedObjectItem::isObscuredBy(QGraphicsItem const*) const@Base" 4:14.12.50
 (c++)"non-virtual thunk to KGameRenderedObjectItem::opaqueArea() const@Base" 4:14.12.50
 (c++)"non-virtual thunk to KGameRenderedObjectItem::paint(QPainter*, QStyleOptionGraphicsItem const*, QWidget*)@Base" 4:14.12.50
 (c++)"non-virtual thunk to KGameRenderedObjectItem::receivePixmap(QPixmap const&)@Base" 4:14.12.50
 (c++)"non-virtual thunk to KGameRenderedObjectItem::shape() const@Base" 4:14.12.50
 (c++)"non-virtual thunk to KGameRenderedObjectItem::~KGameRenderedObjectItem()@Base" 4:14.12.50
 (c++)"non-virtual thunk to KScoreDialog::~KScoreDialog()@Base" 4:14.12.50
 (c++|arch=!i386 !x32)"non-virtual thunk to KgDeclarativeView::~KgDeclarativeView()@Base" 4:22.12.0
 (c++)"non-virtual thunk to KgThemeSelector::~KgThemeSelector()@Base" 4:14.12.50
